target datalayout = "e-m:e-p270:32:32-p271:32:32-p272:64:64-i64:64-i128:128-f80:128-n8:16:32:64-S128"
target triple = "x86_64-pc-linux-gnu"

@hf_zbee_tlv_local_comm_channel_mask = internal global i32 0, align 4
@hf_zbee_tlv_local_comm_channel_page = internal global i32 0, align 4
@hf_zbee_tlv_local_comm_channel_page_count = internal global i32 0, align 4
@.str.203 = private unnamed_addr constant [11 x i8] c"Channels: \00", align 1
@.str.204 = private unnamed_addr constant [5 x i8] c"None\00", align 1
@.str.205 = private unnamed_addr constant [3 x i8] c"%d\00", align 1
@.str.206 = private unnamed_addr constant [5 x i8] c", %d\00", align 1
@.str.207 = private unnamed_addr constant [4 x i8] c"-%d\00", align 1

; Function Attrs: null_pointer_is_valid sspstrong uwtable
define internal i32 @dissect_zbee_tlv_chanmask(ptr noundef %0, ptr noundef %1, i32 noundef %2, i32 noundef %3, i32 noundef %4) #0 {
  %6 = alloca ptr, align 8
  %7 = alloca ptr, align 8
  %8 = alloca i32, align 4
  %9 = alloca i32, align 4
  %10 = alloca i32, align 4
  %11 = alloca i32, align 4
  %12 = alloca i32, align 4
  %13 = alloca i8, align 1
  %14 = alloca ptr, align 8
  store ptr %0, ptr %6, align 8
  store ptr %1, ptr %7, align 8
  store i32 %2, ptr %8, align 4
  store i32 %3, ptr %9, align 4
  store i32 %4, ptr %10, align 4
  call void @llvm.lifetime.start.p0(i64 4, ptr %11) #6
  call void @llvm.lifetime.start.p0(i64 4, ptr %12) #6
  call void @llvm.lifetime.start.p0(i64 1, ptr %13) #6
  call void @llvm.lifetime.start.p0(i64 8, ptr %14) #6
  %15 = load ptr, ptr %7, align 8
  %16 = load i32, ptr %8, align 4
  %17 = call i32 @tvb_get_letohl(ptr noundef %15, i32 noundef %16)
  store i32 %17, ptr %12, align 4
  %18 = load i32, ptr %12, align 4
  %19 = lshr i32 %18, 27
  %20 = and i32 %19, 7
  %21 = trunc i32 %20 to i8
  store i8 %21, ptr %13, align 1
  %22 = load i32, ptr %12, align 4
  %23 = zext i32 %22 to i64
  %24 = and i64 %23, 134217727
  %25 = trunc i64 %24 to i32
  store i32 %25, ptr %12, align 4
  %26 = load ptr, ptr %6, align 8
  %27 = load i32, ptr %9, align 4
  %28 = load ptr, ptr %7, align 8
  %29 = load i32, ptr %8, align 4
  %30 = load i8, ptr %13, align 1
  %31 = zext i8 %30 to i32
  %32 = call ptr @proto_tree_add_uint(ptr noundef %26, i32 noundef %27, ptr noundef %28, i32 noundef %29, i32 noundef 4, i32 noundef %31)
  %33 = load ptr, ptr %6, align 8
  %34 = load i32, ptr %10, align 4
  %35 = load ptr, ptr %7, align 8
  %36 = load i32, ptr %8, align 4
  %37 = load i32, ptr %12, align 4
  %38 = call ptr (ptr, i32, ptr, i32, i32, i32, ptr, ...) @proto_tree_add_uint_format(ptr noundef %33, i32 noundef %34, ptr noundef %35, i32 noundef %36, i32 noundef 4, i32 noundef %37, ptr noundef @.str.203)
  store ptr %38, ptr %14, align 8
  %39 = load i32, ptr %12, align 4
  %40 = icmp eq i32 %39, 0
  br i1 %40, label %41, label %43

41:                                               ; preds = %5
  %42 = load ptr, ptr %14, align 8
  call void (ptr, ptr, ...) @proto_item_append_text(ptr noundef %42, ptr noundef @.str.204)
  br label %43

43:                                               ; preds = %41, %5
  store i32 0, ptr %11, align 4
  br label %44

44:                                               ; preds = %58, %43
  %45 = load i32, ptr %11, align 4
  %46 = icmp ult i32 %45, 32
  br i1 %46, label %47, label %61

47:                                               ; preds = %44
  %48 = load i32, ptr %11, align 4
  %49 = shl i32 1, %48
  %50 = load i32, ptr %12, align 4
  %51 = and i32 %49, %50
  %52 = icmp ne i32 %51, 0
  br i1 %52, label %53, label %57

53:                                               ; preds = %47
  %54 = load ptr, ptr %14, align 8
  %55 = load i32, ptr %11, align 4
  %56 = add i32 %55, 1
  store i32 %56, ptr %11, align 4
  call void (ptr, ptr, ...) @proto_item_append_text(ptr noundef %54, ptr noundef @.str.205, i32 noundef %55)
  br label %61

57:                                               ; preds = %47
  br label %58

58:                                               ; preds = %57
  %59 = load i32, ptr %11, align 4
  %60 = add i32 %59, 1
  store i32 %60, ptr %11, align 4
  br label %44, !llvm.loop !14

61:                                               ; preds = %53, %44
  br label %62

62:                                               ; preds = %107, %61
  %63 = load i32, ptr %11, align 4
  %64 = icmp ult i32 %63, 32
  br i1 %64, label %65, label %110

65:                                               ; preds = %62
  %66 = load i32, ptr %11, align 4
  %67 = shl i32 1, %66
  %68 = load i32, ptr %12, align 4
  %69 = and i32 %67, %68
  %70 = icmp ne i32 %69, 0
  br i1 %70, label %72, label %71

71:                                               ; preds = %65
  br label %107

72:                                               ; preds = %65
  %73 = load i32, ptr %11, align 4
  %74 = sub i32 %73, 1
  %75 = shl i32 1, %74
  %76 = load i32, ptr %12, align 4
  %77 = and i32 %75, %76
  %78 = icmp ne i32 %77, 0
  br i1 %78, label %82, label %79

79:                                               ; preds = %72
  %80 = load ptr, ptr %14, align 8
  %81 = load i32, ptr %11, align 4
  call void (ptr, ptr, ...) @proto_item_append_text(ptr noundef %80, ptr noundef @.str.206, i32 noundef %81)
  br label %82

82:                                               ; preds = %79, %72
  %83 = load i32, ptr %11, align 4
  %84 = shl i32 2, %83
  %85 = load i32, ptr %12, align 4
  %86 = and i32 %84, %85
  %87 = icmp ne i32 %86, 0
  br i1 %87, label %88, label %106

88:                                               ; preds = %82
  br label %89

89:                                               ; preds = %100, %88
  %90 = load i32, ptr %11, align 4
  %91 = icmp ult i32 %90, 32
  br i1 %91, label %92, label %98

92:                                               ; preds = %89
  %93 = load i32, ptr %11, align 4
  %94 = shl i32 2, %93
  %95 = load i32, ptr %12, align 4
  %96 = and i32 %94, %95
  %97 = icmp ne i32 %96, 0
  br label %98

98:                                               ; preds = %92, %89
  %99 = phi i1 [ false, %89 ], [ %97, %92 ]
  br i1 %99, label %100, label %103

100:                                              ; preds = %98
  %101 = load i32, ptr %11, align 4
  %102 = add i32 %101, 1
  store i32 %102, ptr %11, align 4
  br label %89, !llvm.loop !15

103:                                              ; preds = %98
  %104 = load ptr, ptr %14, align 8
  %105 = load i32, ptr %11, align 4
  call void (ptr, ptr, ...) @proto_item_append_text(ptr noundef %104, ptr noundef @.str.207, i32 noundef %105)
  br label %106

106:                                              ; preds = %103, %82
  br label %107

107:                                              ; preds = %106, %71
  %108 = load i32, ptr %11, align 4
  %109 = add i32 %108, 1
  store i32 %109, ptr %11, align 4
  br label %62, !llvm.loop !16

110:                                              ; preds = %62
  %111 = load i32, ptr %8, align 4
  %112 = zext i32 %111 to i64
  %113 = add i64 %112, 4
  %114 = trunc i64 %113 to i32
  store i32 %114, ptr %8, align 4
  %115 = load i32, ptr %8, align 4
  call void @llvm.lifetime.end.p0(i64 8, ptr %14) #6
  call void @llvm.lifetime.end.p0(i64 1, ptr %13) #6
  call void @llvm.lifetime.end.p0(i64 4, ptr %12) #6
  call void @llvm.lifetime.end.p0(i64 4, ptr %11) #6
  ret i32 %115
}

; Function Attrs: null_pointer_is_valid sspstrong uwtable
define internal i32 @dissect_zbee_tlv_nwk_channel_list(ptr noundef %0, ptr noundef %1, ptr noundef %2, i32 noundef %3) #0 {
  %5 = alloca ptr, align 8
  %6 = alloca ptr, align 8
  %7 = alloca ptr, align 8
  %8 = alloca i32, align 4
  %9 = alloca i32, align 4
  %10 = alloca i32, align 4
  store ptr %0, ptr %5, align 8
  store ptr %1, ptr %6, align 8
  store ptr %2, ptr %7, align 8
  store i32 %3, ptr %8, align 4
  call void @llvm.lifetime.start.p0(i64 4, ptr %9) #6
  store i32 0, ptr %9, align 4
  %11 = load ptr, ptr %7, align 8
  %12 = load i32, ptr @hf_zbee_tlv_local_comm_channel_page_count, align 4
  %13 = load ptr, ptr %5, align 8
  %14 = load i32, ptr %8, align 4
  %15 = call ptr @proto_tree_add_item_ret_uint(ptr noundef %11, i32 noundef %12, ptr noundef %13, i32 noundef %14, i32 noundef 1, i32 noundef -2147483648, ptr noundef %9)
  %16 = load i32, ptr %8, align 4
  %17 = add i32 %16, 1
  store i32 %17, ptr %8, align 4
  call void @llvm.lifetime.start.p0(i64 4, ptr %10) #6
  store i32 0, ptr %10, align 4
  br label %18

18:                                               ; preds = %30, %4
  %19 = load i32, ptr %10, align 4
  %20 = load i32, ptr %9, align 4
  %21 = icmp ult i32 %19, %20
  br i1 %21, label %23, label %22

22:                                               ; preds = %18
  call void @llvm.lifetime.end.p0(i64 4, ptr %10) #6
  br label %33

23:                                               ; preds = %18
  %24 = load ptr, ptr %7, align 8
  %25 = load ptr, ptr %5, align 8
  %26 = load i32, ptr %8, align 4
  %27 = load i32, ptr @hf_zbee_tlv_local_comm_channel_page, align 4
  %28 = load i32, ptr @hf_zbee_tlv_local_comm_channel_mask, align 4
  %29 = call i32 @dissect_zbee_tlv_chanmask(ptr noundef %24, ptr noundef %25, i32 noundef %26, i32 noundef %27, i32 noundef %28)
  store i32 %29, ptr %8, align 4
  br label %30

30:                                               ; preds = %23
  %31 = load i32, ptr %10, align 4
  %32 = add i32 %31, 1
  store i32 %32, ptr %10, align 4
  br label %18, !llvm.loop !13

33:                                               ; preds = %22
  %34 = load i32, ptr %8, align 4
  call void @llvm.lifetime.end.p0(i64 4, ptr %9) #6
  ret i32 %34
}