; Function Attrs: null_pointer_is_valid sspstrong uwtable
define internal fastcc noundef i32 @dissect_zbee_tlv_nwk_channel_list(ptr noundef %0, ptr noundef %1, i32 noundef %2) unnamed_addr #0 {
  %4 = alloca i32, align 4
  call void @llvm.lifetime.start.p0(i64 4, ptr nonnull %4) #4
  store i32 0, ptr %4, align 4
  %5 = load i32, ptr @hf_zbee_tlv_local_comm_channel_page_count, align 4
  %6 = call ptr @proto_tree_add_item_ret_uint(ptr noundef %1, i32 noundef %5, ptr noundef %0, i32 noundef %2, i32 noundef 1, i32 noundef -2147483648, ptr noundef nonnull %4)
  %7 = add i32 %2, 1
  %8 = load i32, ptr %4, align 4
  %.not = icmp eq i32 %8, 0
  br i1 %.not, label %._crit_edge, label %.lr.ph

._crit_edge:                                      ; preds = %dissect_zbee_tlv_chanmask.exit, %3
  %.09.lcssa = phi i32 [ %7, %3 ], [ %43, %dissect_zbee_tlv_chanmask.exit ]
  call void @llvm.lifetime.end.p0(i64 4, ptr nonnull %4) #4
  ret i32 %.09.lcssa

.lr.ph:                                           ; preds = %3, %dissect_zbee_tlv_chanmask.exit
  %.04 = phi i32 [ %44, %dissect_zbee_tlv_chanmask.exit ], [ 0, %3 ]
  %.093 = phi i32 [ %43, %dissect_zbee_tlv_chanmask.exit ], [ %7, %3 ]
  %9 = load i32, ptr @hf_zbee_tlv_local_comm_channel_page, align 4
  %10 = load i32, ptr @hf_zbee_tlv_local_comm_channel_mask, align 4
  %11 = call i32 @tvb_get_letohl(ptr noundef %0, i32 noundef %.093)
  %12 = lshr i32 %11, 27
  %13 = and i32 %12, 7
  %14 = and i32 %11, 134217727
  %15 = call ptr @proto_tree_add_uint(ptr noundef %1, i32 noundef %9, ptr noundef %0, i32 noundef %.093, i32 noundef 4, i32 noundef %13)
  %16 = call ptr (ptr, i32, ptr, i32, i32, i32, ptr, ...) @proto_tree_add_uint_format(ptr noundef %1, i32 noundef %10, ptr noundef %0, i32 noundef %.093, i32 noundef 4, i32 noundef %14, ptr noundef nonnull @.str.203)
  %17 = icmp eq i32 %14, 0
  br i1 %17, label %18, label %.preheader

18:                                               ; preds = %.lr.ph
  call void (ptr, ptr, ...) @proto_item_append_text(ptr noundef %16, ptr noundef nonnull @.str.204)
  br label %.preheader

.preheader:                                       ; preds = %18, %.lr.ph
  br label %19

19:                                               ; preds = %.preheader, %22
  %.044.i = phi i32 [ %23, %22 ], [ 0, %.preheader ]
  %20 = shl nuw i32 1, %.044.i
  %21 = and i32 %20, %14
  %.not.i = icmp eq i32 %21, 0
  br i1 %.not.i, label %22, label %.loopexit.i

22:                                               ; preds = %19
  %23 = add nuw nsw i32 %.044.i, 1
  %exitcond.not.i = icmp eq i32 %23, 32
  br i1 %exitcond.not.i, label %dissect_zbee_tlv_chanmask.exit, label %19, !llvm.loop !15

.loopexit.i:                                      ; preds = %19
  call void (ptr, ptr, ...) @proto_item_append_text(ptr noundef %16, ptr noundef nonnull @.str.205, i32 noundef %.044.i)
  %24 = icmp samesign ult i32 %.044.i, 31
  br i1 %24, label %.lr.ph49.i.preheader, label %dissect_zbee_tlv_chanmask.exit

.lr.ph49.i.preheader:                             ; preds = %.loopexit.i
  %25 = add nuw nsw i32 %.044.i, 1
  br label %.lr.ph49.i

.lr.ph49.i:                                       ; preds = %.lr.ph49.i.preheader, %40
  %.248.i = phi i32 [ %41, %40 ], [ %25, %.lr.ph49.i.preheader ]
  %26 = shl nuw i32 1, %.248.i
  %27 = and i32 %26, %14
  %.not39.i = icmp eq i32 %27, 0
  br i1 %.not39.i, label %40, label %28

28:                                               ; preds = %.lr.ph49.i
  %29 = add nsw i32 %.248.i, -1
  %30 = shl nuw nsw i32 1, %29
  %31 = and i32 %30, %14
  %.not40.i = icmp eq i32 %31, 0
  br i1 %.not40.i, label %32, label %33

32:                                               ; preds = %28
  call void (ptr, ptr, ...) @proto_item_append_text(ptr noundef %16, ptr noundef nonnull @.str.206, i32 noundef %.248.i)
  br label %33

33:                                               ; preds = %32, %28
  %34 = shl i32 2, %.248.i
  %35 = and i32 %34, %14
  %.not41.i = icmp eq i32 %35, 0
  br i1 %.not41.i, label %40, label %.lr.ph.i

.lr.ph.i:                                         ; preds = %33, %38
  %.445.i = phi i32 [ %39, %38 ], [ %.248.i, %33 ]
  %36 = shl i32 2, %.445.i
  %37 = and i32 %36, %14
  %.not42.i = icmp eq i32 %37, 0
  br i1 %.not42.i, label %.critedge.i, label %38

38:                                               ; preds = %.lr.ph.i
  %39 = add i32 %.445.i, 1
  %exitcond51.not.i = icmp eq i32 %39, 32
  br i1 %exitcond51.not.i, label %.critedge.i, label %.lr.ph.i, !llvm.loop !16

.critedge.i:                                      ; preds = %38, %.lr.ph.i
  %.4.lcssa.ph.i = phi i32 [ %.445.i, %.lr.ph.i ], [ 32, %38 ]
  call void (ptr, ptr, ...) @proto_item_append_text(ptr noundef %16, ptr noundef nonnull @.str.207, i32 noundef %.4.lcssa.ph.i)
  br label %40

40:                                               ; preds = %.critedge.i, %33, %.lr.ph49.i
  %.3.i = phi i32 [ %.4.lcssa.ph.i, %.critedge.i ], [ %.248.i, %33 ], [ %.248.i, %.lr.ph49.i ]
  %41 = add i32 %.3.i, 1
  %42 = icmp ult i32 %41, 32
  br i1 %42, label %.lr.ph49.i, label %dissect_zbee_tlv_chanmask.exit, !llvm.loop !17

dissect_zbee_tlv_chanmask.exit:                   ; preds = %22, %40, %.loopexit.i
  %43 = add i32 %.093, 4
  %44 = add nuw i32 %.04, 1
  %45 = load i32, ptr %4, align 4
  %46 = icmp ult i32 %44, %45
  br i1 %46, label %.lr.ph, label %._crit_edge, !llvm.loop !18
}